; Function Attrs: mustprogress uwtable
define dso_local void @_ZN23btReducedDeformableBody18proceedToTransformEfb(ptr noundef nonnull align 8 dereferenceable(3176) %0, float noundef %1, i1 noundef zeroext %2) local_unnamed_addr #4 align 2 {
  %4 = getelementptr inbounds nuw i8, ptr %0, i64 2480
  %5 = getelementptr inbounds nuw i8, ptr %0, i64 2360
  %6 = getelementptr inbounds nuw i8, ptr %0, i64 2376
  %7 = getelementptr inbounds nuw i8, ptr %0, i64 72
  tail call void @_ZN15btTransformUtil18integrateTransformERK11btTransformRK9btVector3S5_fRS0_(ptr noundef nonnull align 4 dereferenceable(64) %4, ptr noundef nonnull align 4 dereferenceable(16) %5, ptr noundef nonnull align 4 dereferenceable(16) %6, float noundef %1, ptr noundef nonnull align 4 dereferenceable(64) %7)
  tail call void @_ZN23btReducedDeformableBody19updateInertiaTensorEv(ptr noundef nonnull align 8 dereferenceable(3176) %0)
  tail call void @llvm.memcpy.p0.p0.i64(ptr noundef nonnull align 8 dereferenceable(64) %4, ptr noundef nonnull align 8 dereferenceable(64) %7, i64 16, i1 false), !tbaa.struct !149
  %8 = getelementptr inbounds nuw i8, ptr %0, i64 88
  %9 = getelementptr inbounds nuw i8, ptr %0, i64 2496
  tail call void @llvm.memcpy.p0.p0.i64(ptr noundef nonnull align 8 dereferenceable(16) %9, ptr noundef nonnull align 8 dereferenceable(16) %8, i64 16, i1 false), !tbaa.struct !149
  %10 = getelementptr inbounds nuw i8, ptr %0, i64 104
  %11 = getelementptr inbounds nuw i8, ptr %0, i64 2512
  tail call void @llvm.memcpy.p0.p0.i64(ptr noundef nonnull align 8 dereferenceable(16) %11, ptr noundef nonnull align 8 dereferenceable(16) %10, i64 16, i1 false), !tbaa.struct !149
  %12 = getelementptr inbounds nuw i8, ptr %0, i64 120
  %13 = getelementptr inbounds nuw i8, ptr %0, i64 2528
  tail call void @llvm.memcpy.p0.p0.i64(ptr noundef nonnull align 8 dereferenceable(16) %13, ptr noundef nonnull align 8 dereferenceable(16) %12, i64 16, i1 false), !tbaa.struct !149
  %14 = getelementptr inbounds nuw i8, ptr %0, i64 2640
  %15 = getelementptr inbounds nuw i8, ptr %0, i64 2592
  tail call void @llvm.memcpy.p0.p0.i64(ptr noundef nonnull align 8 dereferenceable(48) %15, ptr noundef nonnull align 8 dereferenceable(48) %14, i64 16, i1 false), !tbaa.struct !149
  %16 = getelementptr inbounds nuw i8, ptr %0, i64 2656
  %17 = getelementptr inbounds nuw i8, ptr %0, i64 2608
  tail call void @llvm.memcpy.p0.p0.i64(ptr noundef nonnull align 8 dereferenceable(16) %17, ptr noundef nonnull align 8 dereferenceable(16) %16, i64 16, i1 false), !tbaa.struct !149
  %18 = getelementptr inbounds nuw i8, ptr %0, i64 2672
  %19 = getelementptr inbounds nuw i8, ptr %0, i64 2624
  tail call void @llvm.memcpy.p0.p0.i64(ptr noundef nonnull align 8 dereferenceable(16) %19, ptr noundef nonnull align 8 dereferenceable(16) %18, i64 16, i1 false), !tbaa.struct !149
  ret void
}